target datalayout = "e-m:e-p270:32:32-p271:32:32-p272:64:64-i64:64-i128:128-f80:128-n8:16:32:64-S128"
target triple = "x86_64-pc-linux-gnu"

%struct.anon = type { i8 }
%struct.anon.1 = type { i8 }
%struct.anon.2 = type { i8 }
%struct.Triple = type { double, double, double }
%struct.TripleDistances = type { double, double }

@_ZL8hb_clamp = internal constant %struct.anon zeroinitializer, align 1
@_ZL6hb_min = internal constant %struct.anon.1 zeroinitializer, align 1
@_ZL6hb_max = internal constant %struct.anon.2 zeroinitializer, align 1

; Function Attrs: mustprogress nounwind uwtable
define linkonce_odr dso_local void @_ZN15TripleDistancesC2Edd(ptr noundef nonnull align 8 dereferenceable(16) %0, double noundef %1, double noundef %2) unnamed_addr #0 comdat align 2 {
  %4 = alloca ptr, align 8
  %5 = alloca double, align 8
  %6 = alloca double, align 8
  store ptr %0, ptr %4, align 8, !tbaa !11
  store double %1, ptr %5, align 8, !tbaa !4
  store double %2, ptr %6, align 8, !tbaa !4
  %7 = load ptr, ptr %4, align 8
  %8 = getelementptr inbounds nuw %struct.TripleDistances, ptr %7, i32 0, i32 0
  %9 = load double, ptr %5, align 8, !tbaa !4
  store double %9, ptr %8, align 8, !tbaa !21
  %10 = getelementptr inbounds nuw %struct.TripleDistances, ptr %7, i32 0, i32 1
  %11 = load double, ptr %6, align 8, !tbaa !4
  store double %11, ptr %10, align 8, !tbaa !23
  ret void
}

; Function Attrs: mustprogress nounwind uwtable
define linkonce_odr dso_local void @_ZN6TripleC2Eddd(ptr noundef nonnull align 8 dereferenceable(24) %0, double noundef %1, double noundef %2, double noundef %3) unnamed_addr #0 comdat align 2 {
  %5 = alloca ptr, align 8
  %6 = alloca double, align 8
  %7 = alloca double, align 8
  %8 = alloca double, align 8
  store ptr %0, ptr %5, align 8, !tbaa !8
  store double %1, ptr %6, align 8, !tbaa !4
  store double %2, ptr %7, align 8, !tbaa !4
  store double %3, ptr %8, align 8, !tbaa !4
  %9 = load ptr, ptr %5, align 8
  %10 = getelementptr inbounds nuw %struct.Triple, ptr %9, i32 0, i32 0
  %11 = load double, ptr %6, align 8, !tbaa !4
  store double %11, ptr %10, align 8, !tbaa !15
  %12 = getelementptr inbounds nuw %struct.Triple, ptr %9, i32 0, i32 1
  %13 = load double, ptr %7, align 8, !tbaa !4
  store double %13, ptr %12, align 8, !tbaa !17
  %14 = getelementptr inbounds nuw %struct.Triple, ptr %9, i32 0, i32 2
  %15 = load double, ptr %8, align 8, !tbaa !4
  store double %15, ptr %14, align 8, !tbaa !18
  ret void
}

; Function Attrs: mustprogress nounwind uwtable
define internal noundef nonnull align 8 dereferenceable(8) ptr @"_ZNK3$_2clIRdS1_EEDTqulefp_fp0_fp_fp0_EOT_OT0_"(ptr noundef nonnull align 1 dereferenceable(1) %0, ptr noundef nonnull align 8 dereferenceable(8) %1, ptr noundef nonnull align 8 dereferenceable(8) %2) #0 align 2 {
  %4 = alloca ptr, align 8
  %5 = alloca ptr, align 8
  %6 = alloca ptr, align 8
  store ptr %0, ptr %4, align 8, !tbaa !24
  store ptr %1, ptr %5, align 8, !tbaa !25
  store ptr %2, ptr %6, align 8, !tbaa !25
  %7 = load ptr, ptr %5, align 8, !tbaa !25
  %8 = load double, ptr %7, align 8, !tbaa !4
  %9 = load ptr, ptr %6, align 8, !tbaa !25
  %10 = load double, ptr %9, align 8, !tbaa !4
  %11 = fcmp ole double %8, %10
  br i1 %11, label %12, label %14

12:                                               ; preds = %3
  %13 = load ptr, ptr %5, align 8, !tbaa !25
  br label %16

14:                                               ; preds = %3
  %15 = load ptr, ptr %6, align 8, !tbaa !25
  br label %16

16:                                               ; preds = %14, %12
  %17 = phi ptr [ %13, %12 ], [ %15, %14 ]
  ret ptr %17
}

; Function Attrs: mustprogress nounwind uwtable
define internal noundef nonnull align 8 dereferenceable(8) ptr @"_ZNK3$_0clIRdS1_EEDTqugefp_fp0_fp_fp0_EOT_OT0_"(ptr noundef nonnull align 1 dereferenceable(1) %0, ptr noundef nonnull align 8 dereferenceable(8) %1, ptr noundef nonnull align 8 dereferenceable(8) %2) #0 align 2 {
  %4 = alloca ptr, align 8
  %5 = alloca ptr, align 8
  %6 = alloca ptr, align 8
  store ptr %0, ptr %4, align 8, !tbaa !24
  store ptr %1, ptr %5, align 8, !tbaa !25
  store ptr %2, ptr %6, align 8, !tbaa !25
  %7 = load ptr, ptr %5, align 8, !tbaa !25
  %8 = load double, ptr %7, align 8, !tbaa !4
  %9 = load ptr, ptr %6, align 8, !tbaa !25
  %10 = load double, ptr %9, align 8, !tbaa !4
  %11 = fcmp oge double %8, %10
  br i1 %11, label %12, label %14

12:                                               ; preds = %3
  %13 = load ptr, ptr %5, align 8, !tbaa !25
  br label %16

14:                                               ; preds = %3
  %15 = load ptr, ptr %6, align 8, !tbaa !25
  br label %16

16:                                               ; preds = %14, %12
  %17 = phi ptr [ %13, %12 ], [ %15, %14 ]
  ret ptr %17
}

; Function Attrs: inlinehint mustprogress nounwind uwtable
define internal { double, double } @_ZL25_reverse_triple_distancesRK15TripleDistances(ptr noundef nonnull align 8 dereferenceable(16) %0) #2 {
  %2 = alloca %struct.TripleDistances, align 8
  %3 = alloca ptr, align 8
  store ptr %0, ptr %3, align 8, !tbaa !11
  %4 = load ptr, ptr %3, align 8, !tbaa !11
  %5 = getelementptr inbounds nuw %struct.TripleDistances, ptr %4, i32 0, i32 1
  %6 = load double, ptr %5, align 8, !tbaa !23
  %7 = load ptr, ptr %3, align 8, !tbaa !11
  %8 = getelementptr inbounds nuw %struct.TripleDistances, ptr %7, i32 0, i32 0
  %9 = load double, ptr %8, align 8, !tbaa !21
  call void @_ZN15TripleDistancesC2Edd(ptr noundef nonnull align 8 dereferenceable(16) %2, double noundef %6, double noundef %9)
  %10 = load { double, double }, ptr %2, align 8
  ret { double, double } %10
}

; Function Attrs: inlinehint mustprogress nounwind uwtable
define internal void @_ZL15_reverse_negateRK6Triple(ptr dead_on_unwind noalias writable sret(%struct.Triple) align 8 %0, ptr noundef nonnull align 8 dereferenceable(24) %1) #2 {
  %3 = alloca ptr, align 8
  store ptr %1, ptr %3, align 8, !tbaa !8
  %4 = load ptr, ptr %3, align 8, !tbaa !8
  %5 = getelementptr inbounds nuw %struct.Triple, ptr %4, i32 0, i32 2
  %6 = load double, ptr %5, align 8, !tbaa !18
  %7 = fneg double %6
  %8 = load ptr, ptr %3, align 8, !tbaa !8
  %9 = getelementptr inbounds nuw %struct.Triple, ptr %8, i32 0, i32 1
  %10 = load double, ptr %9, align 8, !tbaa !17
  %11 = fneg double %10
  %12 = load ptr, ptr %3, align 8, !tbaa !8
  %13 = getelementptr inbounds nuw %struct.Triple, ptr %12, i32 0, i32 0
  %14 = load double, ptr %13, align 8, !tbaa !15
  %15 = fneg double %14
  call void @_ZN6TripleC2Eddd(ptr noundef nonnull align 8 dereferenceable(24) %0, double noundef %7, double noundef %11, double noundef %15)
  ret void
}

; Function Attrs: mustprogress nounwind uwtable
define internal noundef nonnull align 8 dereferenceable(8) ptr @"_ZNK3$_4clIRdS1_S1_EEDTclL_ZL6hb_minEclL_ZL6hb_maxEclsr3stdE7forwardIT_Efp_Eclsr3stdE7forwardIT0_Efp0_EEclsr3stdE7forwardIT1_Efp1_EEEOS2_OS3_OS4_"(ptr noundef nonnull align 1 dereferenceable(1) %0, ptr noundef nonnull align 8 dereferenceable(8) %1, ptr noundef nonnull align 8 dereferenceable(8) %2, ptr noundef nonnull align 8 dereferenceable(8) %3) #0 align 2 {
  %5 = alloca ptr, align 8
  %6 = alloca ptr, align 8
  %7 = alloca ptr, align 8
  %8 = alloca ptr, align 8
  store ptr %0, ptr %5, align 8, !tbaa !24
  store ptr %1, ptr %6, align 8, !tbaa !25
  store ptr %2, ptr %7, align 8, !tbaa !25
  store ptr %3, ptr %8, align 8, !tbaa !25
  %9 = load ptr, ptr %6, align 8, !tbaa !25
  %10 = load ptr, ptr %7, align 8, !tbaa !25
  %11 = call noundef nonnull align 8 dereferenceable(8) ptr @"_ZNK3$_0clIRdS1_EEDTqugefp_fp0_fp_fp0_EOT_OT0_"(ptr noundef nonnull align 1 dereferenceable(1) @_ZL6hb_max, ptr noundef nonnull align 8 dereferenceable(8) %9, ptr noundef nonnull align 8 dereferenceable(8) %10)
  %12 = load ptr, ptr %8, align 8, !tbaa !25
  %13 = call noundef nonnull align 8 dereferenceable(8) ptr @"_ZNK3$_2clIRdS1_EEDTqulefp_fp0_fp_fp0_EOT_OT0_"(ptr noundef nonnull align 1 dereferenceable(1) @_ZL6hb_min, ptr noundef nonnull align 8 dereferenceable(8) %11, ptr noundef nonnull align 8 dereferenceable(8) %12)
  ret ptr %13
}

; Function Attrs: mustprogress nounwind uwtable
define hidden noundef double @_Z16renormalizeValuedRK6TripleRK15TripleDistancesb(double noundef %0, ptr noundef nonnull align 8 dereferenceable(24) %1, ptr noundef nonnull align 8 dereferenceable(16) %2, i1 noundef zeroext %3) #0 {
  %5 = alloca double, align 8
  %6 = alloca double, align 8
  %7 = alloca ptr, align 8
  %8 = alloca ptr, align 8
  %9 = alloca i8, align 1
  %10 = alloca double, align 8
  %11 = alloca double, align 8
  %12 = alloca double, align 8
  %13 = alloca i32, align 4
  %14 = alloca %struct.Triple, align 8
  %15 = alloca %struct.TripleDistances, align 8
  %16 = alloca double, align 8
  %17 = alloca double, align 8
  store double %0, ptr %6, align 8, !tbaa !4
  store ptr %1, ptr %7, align 8, !tbaa !8
  store ptr %2, ptr %8, align 8, !tbaa !11
  %18 = zext i1 %3 to i8
  store i8 %18, ptr %9, align 1, !tbaa !13
  call void @llvm.lifetime.start.p0(i64 8, ptr %10) #9
  %19 = load ptr, ptr %7, align 8, !tbaa !8
  %20 = getelementptr inbounds nuw %struct.Triple, ptr %19, i32 0, i32 0
  %21 = load double, ptr %20, align 8, !tbaa !15
  store double %21, ptr %10, align 8, !tbaa !4
  call void @llvm.lifetime.start.p0(i64 8, ptr %11) #9
  %22 = load ptr, ptr %7, align 8, !tbaa !8
  %23 = getelementptr inbounds nuw %struct.Triple, ptr %22, i32 0, i32 1
  %24 = load double, ptr %23, align 8, !tbaa !17
  store double %24, ptr %11, align 8, !tbaa !4
  call void @llvm.lifetime.start.p0(i64 8, ptr %12) #9
  %25 = load ptr, ptr %7, align 8, !tbaa !8
  %26 = getelementptr inbounds nuw %struct.Triple, ptr %25, i32 0, i32 2
  %27 = load double, ptr %26, align 8, !tbaa !18
  store double %27, ptr %12, align 8, !tbaa !4
  %28 = load i8, ptr %9, align 1, !tbaa !13, !range !19, !noundef !20
  %29 = trunc i8 %28 to i1
  br i1 %29, label %33, label %30

30:                                               ; preds = %4
  %31 = call noundef nonnull align 8 dereferenceable(8) ptr @"_ZNK3$_4clIRdS1_S1_EEDTclL_ZL6hb_minEclL_ZL6hb_maxEclsr3stdE7forwardIT_Efp_Eclsr3stdE7forwardIT0_Efp0_EEclsr3stdE7forwardIT1_Efp1_EEEOS2_OS3_OS4_"(ptr noundef nonnull align 1 dereferenceable(1) @_ZL8hb_clamp, ptr noundef nonnull align 8 dereferenceable(8) %6, ptr noundef nonnull align 8 dereferenceable(8) %10, ptr noundef nonnull align 8 dereferenceable(8) %12)
  %32 = load double, ptr %31, align 8, !tbaa !4
  store double %32, ptr %6, align 8, !tbaa !4
  br label %33

33:                                               ; preds = %30, %4
  %34 = load double, ptr %6, align 8, !tbaa !4
  %35 = load double, ptr %11, align 8, !tbaa !4
  %36 = fcmp oeq double %34, %35
  br i1 %36, label %37, label %38

37:                                               ; preds = %33
  store double 0.000000e+00, ptr %5, align 8
  store i32 1, ptr %13, align 4
  br label %117

38:                                               ; preds = %33
  %39 = load double, ptr %11, align 8, !tbaa !4
  %40 = fcmp olt double %39, 0.000000e+00
  br i1 %40, label %41, label %55

41:                                               ; preds = %38
  %42 = load double, ptr %6, align 8, !tbaa !4
  %43 = fneg double %42
  call void @llvm.lifetime.start.p0(i64 24, ptr %14) #9
  %44 = load ptr, ptr %7, align 8, !tbaa !8
  call void @_ZL15_reverse_negateRK6Triple(ptr dead_on_unwind writable sret(%struct.Triple) align 8 %14, ptr noundef nonnull align 8 dereferenceable(24) %44)
  call void @llvm.lifetime.start.p0(i64 16, ptr %15) #9
  %45 = load ptr, ptr %8, align 8, !tbaa !11
  %46 = call { double, double } @_ZL25_reverse_triple_distancesRK15TripleDistances(ptr noundef nonnull align 8 dereferenceable(16) %45)
  %47 = getelementptr inbounds nuw { double, double }, ptr %15, i32 0, i32 0
  %48 = extractvalue { double, double } %46, 0
  store double %48, ptr %47, align 8
  %49 = getelementptr inbounds nuw { double, double }, ptr %15, i32 0, i32 1
  %50 = extractvalue { double, double } %46, 1
  store double %50, ptr %49, align 8
  %51 = load i8, ptr %9, align 1, !tbaa !13, !range !19, !noundef !20
  %52 = trunc i8 %51 to i1
  %53 = call noundef double @_Z16renormalizeValuedRK6TripleRK15TripleDistancesb(double noundef %43, ptr noundef nonnull align 8 dereferenceable(24) %14, ptr noundef nonnull align 8 dereferenceable(16) %15, i1 noundef zeroext %52)
  %54 = fneg double %53
  store double %54, ptr %5, align 8
  call void @llvm.lifetime.end.p0(i64 16, ptr %15) #9
  call void @llvm.lifetime.end.p0(i64 24, ptr %14) #9
  store i32 1, ptr %13, align 4
  br label %117

55:                                               ; preds = %38
  %56 = load double, ptr %6, align 8, !tbaa !4
  %57 = load double, ptr %11, align 8, !tbaa !4
  %58 = fcmp ogt double %56, %57
  br i1 %58, label %59, label %67

59:                                               ; preds = %55
  %60 = load double, ptr %6, align 8, !tbaa !4
  %61 = load double, ptr %11, align 8, !tbaa !4
  %62 = fsub double %60, %61
  %63 = load double, ptr %12, align 8, !tbaa !4
  %64 = load double, ptr %11, align 8, !tbaa !4
  %65 = fsub double %63, %64
  %66 = fdiv double %62, %65
  store double %66, ptr %5, align 8
  store i32 1, ptr %13, align 4
  br label %117

67:                                               ; preds = %55
  %68 = load double, ptr %10, align 8, !tbaa !4
  %69 = fcmp oge double %68, 0.000000e+00
  br i1 %69, label %70, label %78

70:                                               ; preds = %67
  %71 = load double, ptr %6, align 8, !tbaa !4
  %72 = load double, ptr %11, align 8, !tbaa !4
  %73 = fsub double %71, %72
  %74 = load double, ptr %11, align 8, !tbaa !4
  %75 = load double, ptr %10, align 8, !tbaa !4
  %76 = fsub double %74, %75
  %77 = fdiv double %73, %76
  store double %77, ptr %5, align 8
  store i32 1, ptr %13, align 4
  br label %117

78:                                               ; preds = %67
  call void @llvm.lifetime.start.p0(i64 8, ptr %16) #9
  %79 = load ptr, ptr %8, align 8, !tbaa !11
  %80 = getelementptr inbounds nuw %struct.TripleDistances, ptr %79, i32 0, i32 0
  %81 = load double, ptr %80, align 8, !tbaa !21
  %82 = load double, ptr %10, align 8, !tbaa !4
  %83 = fneg double %82
  %84 = load ptr, ptr %8, align 8, !tbaa !11
  %85 = getelementptr inbounds nuw %struct.TripleDistances, ptr %84, i32 0, i32 1
  %86 = load double, ptr %85, align 8, !tbaa !23
  %87 = load double, ptr %11, align 8, !tbaa !4
  %88 = fmul double %86, %87
  %89 = call double @llvm.fmuladd.f64(double %81, double %83, double %88)
  store double %89, ptr %16, align 8, !tbaa !4
  call void @llvm.lifetime.start.p0(i64 8, ptr %17) #9
  %90 = load double, ptr %6, align 8, !tbaa !4
  %91 = fcmp oge double %90, 0.000000e+00
  br i1 %91, label %92, label %100

92:                                               ; preds = %78
  %93 = load double, ptr %11, align 8, !tbaa !4
  %94 = load double, ptr %6, align 8, !tbaa !4
  %95 = fsub double %93, %94
  %96 = load ptr, ptr %8, align 8, !tbaa !11
  %97 = getelementptr inbounds nuw %struct.TripleDistances, ptr %96, i32 0, i32 1
  %98 = load double, ptr %97, align 8, !tbaa !23
  %99 = fmul double %95, %98
  store double %99, ptr %17, align 8, !tbaa !4
  br label %112

100:                                              ; preds = %78
  %101 = load double, ptr %6, align 8, !tbaa !4
  %102 = fneg double %101
  %103 = load ptr, ptr %8, align 8, !tbaa !11
  %104 = getelementptr inbounds nuw %struct.TripleDistances, ptr %103, i32 0, i32 0
  %105 = load double, ptr %104, align 8, !tbaa !21
  %106 = load ptr, ptr %8, align 8, !tbaa !11
  %107 = getelementptr inbounds nuw %struct.TripleDistances, ptr %106, i32 0, i32 1
  %108 = load double, ptr %107, align 8, !tbaa !23
  %109 = load double, ptr %11, align 8, !tbaa !4
  %110 = fmul double %108, %109
  %111 = call double @llvm.fmuladd.f64(double %102, double %105, double %110)
  store double %111, ptr %17, align 8, !tbaa !4
  br label %112

112:                                              ; preds = %100, %92
  %113 = load double, ptr %17, align 8, !tbaa !4
  %114 = fneg double %113
  %115 = load double, ptr %16, align 8, !tbaa !4
  %116 = fdiv double %114, %115
  store double %116, ptr %5, align 8
  store i32 1, ptr %13, align 4
  call void @llvm.lifetime.end.p0(i64 8, ptr %17) #9
  call void @llvm.lifetime.end.p0(i64 8, ptr %16) #9
  br label %117

117:                                              ; preds = %112, %70, %59, %41, %37
  call void @llvm.lifetime.end.p0(i64 8, ptr %12) #9
  call void @llvm.lifetime.end.p0(i64 8, ptr %11) #9
  call void @llvm.lifetime.end.p0(i64 8, ptr %10) #9
  %118 = load double, ptr %5, align 8
  ret double %118
}