; Function Attrs: mustprogress nofree nosync nounwind willreturn memory(argmem: read) uwtable
define hidden noundef double @_Z16renormalizeValuedRK6TripleRK15TripleDistancesb(double noundef %0, ptr noundef nonnull readonly align 8 captures(none) dereferenceable(24) %1, ptr noundef nonnull readonly align 8 captures(none) dereferenceable(16) %2, i1 noundef zeroext %3) local_unnamed_addr #0 {
  %5 = alloca %struct.Triple, align 8
  %6 = alloca %struct.TripleDistances, align 8
  %7 = load double, ptr %1, align 8, !tbaa !4
  %8 = getelementptr inbounds nuw i8, ptr %1, i64 8
  %9 = load double, ptr %8, align 8, !tbaa !9
  %10 = getelementptr inbounds nuw i8, ptr %1, i64 16
  %11 = load double, ptr %10, align 8, !tbaa !10
  br i1 %3, label %16, label %12

12:                                               ; preds = %4
  %13 = fcmp oge double %0, %7
  %14 = select i1 %13, double %0, double %7
  %15 = fcmp ole double %14, %11
  %.sroa.speculated = select i1 %15, double %14, double %11
  br label %16

16:                                               ; preds = %12, %4
  %.033 = phi double [ %0, %4 ], [ %.sroa.speculated, %12 ]
  %17 = fcmp oeq double %.033, %9
  br i1 %17, label %60, label %18

18:                                               ; preds = %16
  %19 = fcmp olt double %9, 0.000000e+00
  br i1 %19, label %20, label %31

20:                                               ; preds = %18
  %21 = fneg double %.033
  call void @llvm.lifetime.start.p0(i64 24, ptr nonnull %5) #11
  %22 = fneg double %11
  %23 = fneg double %9
  %24 = fneg double %7
  store double %22, ptr %5, align 8, !tbaa !4, !alias.scope !11
  %25 = getelementptr inbounds nuw i8, ptr %5, i64 8
  store double %23, ptr %25, align 8, !tbaa !9, !alias.scope !11
  %26 = getelementptr inbounds nuw i8, ptr %5, i64 16
  store double %24, ptr %26, align 8, !tbaa !10, !alias.scope !11
  call void @llvm.lifetime.start.p0(i64 16, ptr nonnull %6) #11
  %.val = load double, ptr %2, align 8, !tbaa !14
  %27 = getelementptr inbounds nuw i8, ptr %2, i64 8
  %.val28 = load double, ptr %27, align 8, !tbaa !16
  store double %.val28, ptr %6, align 8
  %28 = getelementptr inbounds nuw i8, ptr %6, i64 8
  store double %.val, ptr %28, align 8
  %29 = call noundef double @_Z16renormalizeValuedRK6TripleRK15TripleDistancesb(double noundef %21, ptr noundef nonnull align 8 dereferenceable(24) %5, ptr noundef nonnull align 8 dereferenceable(16) %6, i1 noundef zeroext %3)
  %30 = fneg double %29
  call void @llvm.lifetime.end.p0(i64 16, ptr nonnull %6) #11
  call void @llvm.lifetime.end.p0(i64 24, ptr nonnull %5) #11
  br label %60

31:                                               ; preds = %18
  %32 = fcmp ogt double %.033, %9
  br i1 %32, label %33, label %37

33:                                               ; preds = %31
  %34 = fsub double %.033, %9
  %35 = fsub double %11, %9
  %36 = fdiv double %34, %35
  br label %60

37:                                               ; preds = %31
  %38 = fcmp ult double %7, 0.000000e+00
  br i1 %38, label %43, label %39

39:                                               ; preds = %37
  %40 = fsub double %.033, %9
  %41 = fsub double %9, %7
  %42 = fdiv double %40, %41
  br label %60

43:                                               ; preds = %37
  %44 = load double, ptr %2, align 8, !tbaa !14
  %45 = fneg double %7
  %46 = getelementptr inbounds nuw i8, ptr %2, i64 8
  %47 = load double, ptr %46, align 8, !tbaa !16
  %48 = fmul double %9, %47
  %49 = tail call double @llvm.fmuladd.f64(double %44, double %45, double %48)
  %50 = fcmp ult double %.033, 0.000000e+00
  br i1 %50, label %54, label %51

51:                                               ; preds = %43
  %52 = fsub double %9, %.033
  %53 = fmul double %52, %47
  br label %57

54:                                               ; preds = %43
  %55 = fneg double %.033
  %56 = tail call double @llvm.fmuladd.f64(double %55, double %44, double %48)
  br label %57

57:                                               ; preds = %54, %51
  %.0 = phi double [ %53, %51 ], [ %56, %54 ]
  %58 = fneg double %.0
  %59 = fdiv double %58, %49
  br label %60

60:                                               ; preds = %16, %57, %39, %33, %20
  %.024 = phi double [ %30, %20 ], [ %36, %33 ], [ %42, %39 ], [ %59, %57 ], [ 0.000000e+00, %16 ]
  ret double %.024
}